target datalayout = "e-m:e-p270:32:32-p271:32:32-p272:64:64-i64:64-i128:128-f80:128-n8:16:32:64-S128"
target triple = "x86_64-pc-linux-gnu"

%"struct.std::_Rb_tree_header" = type { %"struct.std::_Rb_tree_node_base", i64 }
%"struct.std::_Rb_tree_node_base" = type { i32, ptr, ptr, ptr }
%"class.std::vector.7" = type { %"struct.std::_Vector_base.8" }
%"struct.std::_Vector_base.8" = type { %"struct.std::_Vector_base<unsigned long, std::allocator<unsigned long>>::_Vector_impl" }
%"struct.std::_Vector_base<unsigned long, std::allocator<unsigned long>>::_Vector_impl" = type { %"struct.std::_Vector_base<unsigned long, std::allocator<unsigned long>>::_Vector_impl_data" }
%"struct.std::_Vector_base<unsigned long, std::allocator<unsigned long>>::_Vector_impl_data" = type { ptr, ptr, ptr }
%"class.std::vector.17" = type { %"struct.std::_Vector_base.18" }
%"struct.std::_Vector_base.18" = type { %"struct.std::_Vector_base<unsigned int, std::allocator<unsigned int>>::_Vector_impl" }
%"struct.std::_Vector_base<unsigned int, std::allocator<unsigned int>>::_Vector_impl" = type { %"struct.std::_Vector_base<unsigned int, std::allocator<unsigned int>>::_Vector_impl_data" }
%"struct.std::_Vector_base<unsigned int, std::allocator<unsigned int>>::_Vector_impl_data" = type { ptr, ptr, ptr }
%"class.std::vector.12" = type { %"struct.std::_Vector_base.13" }
%"struct.std::_Vector_base.13" = type { %"struct.std::_Vector_base<double, std::allocator<double>>::_Vector_impl" }
%"struct.std::_Vector_base<double, std::allocator<double>>::_Vector_impl" = type { %"struct.std::_Vector_base<double, std::allocator<double>>::_Vector_impl_data" }
%"struct.std::_Vector_base<double, std::allocator<double>>::_Vector_impl_data" = type { ptr, ptr, ptr }
%"struct.casadi::FmuMemory" = type { %"struct.casadi::FunctionMemory", ptr, ptr, ptr, ptr, ptr, ptr, ptr, ptr, ptr, %"struct.casadi::casadi_jac_data", ptr, %"class.std::vector.108", %"class.std::vector.12", %"class.std::vector.12", %"class.std::vector.12", %"class.std::vector.12", %"class.std::vector.33", %"class.std::vector.33", %"class.std::vector.7", %"class.std::vector.7", %"class.std::vector.7", %"class.std::vector.33", %"class.std::vector.33", %"class.std::vector.17", %"class.std::vector.17", %"class.std::vector.12", %"class.std::vector.12", %"class.std::vector.12", %"class.std::vector.12", %"class.std::vector.12", %"class.std::vector.12" }
%"struct.casadi::FunctionMemory" = type { %"struct.casadi::ProtoFunctionMemory" }
%"struct.casadi::ProtoFunctionMemory" = type { %"class.std::map.103", ptr }
%"class.std::map.103" = type { %"class.std::_Rb_tree.104" }
%"class.std::_Rb_tree.104" = type { %"struct.std::_Rb_tree<std::__cxx11::basic_string<char>, std::pair<const std::__cxx11::basic_string<char>, casadi::FStats>, std::_Select1st<std::pair<const std::__cxx11::basic_string<char>, casadi::FStats>>, std::less<std::__cxx11::basic_string<char>>>::_Rb_tree_impl" }
%"struct.std::_Rb_tree<std::__cxx11::basic_string<char>, std::pair<const std::__cxx11::basic_string<char>, casadi::FStats>, std::_Select1st<std::pair<const std::__cxx11::basic_string<char>, casadi::FStats>>, std::less<std::__cxx11::basic_string<char>>>::_Rb_tree_impl" = type { [8 x i8], %"struct.std::_Rb_tree_header" }
%"struct.casadi::casadi_jac_data" = type { i64, i64, ptr, ptr, ptr, ptr, ptr, ptr, ptr }
%"class.std::vector.108" = type { %"struct.std::_Vector_base.109" }
%"struct.std::_Vector_base.109" = type { %"struct.std::_Vector_base<casadi::FmuMemory *, std::allocator<casadi::FmuMemory *>>::_Vector_impl" }
%"struct.std::_Vector_base<casadi::FmuMemory *, std::allocator<casadi::FmuMemory *>>::_Vector_impl" = type { %"struct.std::_Vector_base<casadi::FmuMemory *, std::allocator<casadi::FmuMemory *>>::_Vector_impl_data" }
%"struct.std::_Vector_base<casadi::FmuMemory *, std::allocator<casadi::FmuMemory *>>::_Vector_impl_data" = type { ptr, ptr, ptr }
%"class.std::vector.33" = type { %"struct.std::_Bvector_base" }
%"struct.std::_Bvector_base" = type { %"struct.std::_Bvector_base<std::allocator<bool>>::_Bvector_impl" }
%"struct.std::_Bvector_base<std::allocator<bool>>::_Bvector_impl" = type { %"struct.std::_Bvector_base<std::allocator<bool>>::_Bvector_impl_data" }
%"struct.std::_Bvector_base<std::allocator<bool>>::_Bvector_impl_data" = type { %"struct.std::_Bit_iterator", %"struct.std::_Bit_iterator", ptr }
%"struct.std::_Bit_iterator" = type { %"struct.std::_Bit_iterator_base.base", [4 x i8] }
%"struct.std::_Bit_iterator_base.base" = type <{ ptr, i32 }>

@.str.232 = private unnamed_addr constant [74 x i8] c"vector::_M_range_check: __n (which is %zu) >= this->size() (which is %zu)\00", align 1

; Function Attrs: mustprogress nounwind uwtable
define linkonce_odr hidden noundef i64 @_ZNKSt6vectorIdSaIdEE4sizeEv(ptr noundef nonnull align 8 dereferenceable(24) %0) #9 comdat align 2 {
  %2 = alloca ptr, align 8
  store ptr %0, ptr %2, align 8, !tbaa !52
  %3 = load ptr, ptr %2, align 8
  %4 = getelementptr inbounds nuw %"struct.std::_Vector_base.13", ptr %3, i32 0, i32 0
  %5 = getelementptr inbounds nuw %"struct.std::_Vector_base<double, std::allocator<double>>::_Vector_impl_data", ptr %4, i32 0, i32 1
  %6 = load ptr, ptr %5, align 8, !tbaa !199
  %7 = getelementptr inbounds nuw %"struct.std::_Vector_base.13", ptr %3, i32 0, i32 0
  %8 = getelementptr inbounds nuw %"struct.std::_Vector_base<double, std::allocator<double>>::_Vector_impl_data", ptr %7, i32 0, i32 0
  %9 = load ptr, ptr %8, align 8, !tbaa !198
  %10 = ptrtoint ptr %6 to i64
  %11 = ptrtoint ptr %9 to i64
  %12 = sub i64 %10, %11
  %13 = sdiv exact i64 %12, 8
  ret i64 %13
}

; Function Attrs: mustprogress nounwind uwtable
define linkonce_odr hidden noundef nonnull align 8 dereferenceable(8) ptr @_ZNSt6vectorIdSaIdEEixEm(ptr noundef nonnull align 8 dereferenceable(24) %0, i64 noundef %1) #9 comdat align 2 {
  %3 = alloca ptr, align 8
  %4 = alloca i64, align 8
  store ptr %0, ptr %3, align 8, !tbaa !52
  store i64 %1, ptr %4, align 8, !tbaa !28
  %5 = load ptr, ptr %3, align 8
  %6 = getelementptr inbounds nuw %"struct.std::_Vector_base.13", ptr %5, i32 0, i32 0
  %7 = getelementptr inbounds nuw %"struct.std::_Vector_base<double, std::allocator<double>>::_Vector_impl_data", ptr %6, i32 0, i32 0
  %8 = load ptr, ptr %7, align 8, !tbaa !198
  %9 = load i64, ptr %4, align 8, !tbaa !28
  %10 = getelementptr inbounds nuw double, ptr %8, i64 %9
  ret ptr %10
}

; Function Attrs: mustprogress uwtable
define linkonce_odr hidden void @_ZNKSt6vectorIdSaIdEE14_M_range_checkEm(ptr noundef nonnull align 8 dereferenceable(24) %0, i64 noundef %1) #4 comdat align 2 {
  %3 = alloca ptr, align 8
  %4 = alloca i64, align 8
  store ptr %0, ptr %3, align 8, !tbaa !52
  store i64 %1, ptr %4, align 8, !tbaa !28
  %5 = load ptr, ptr %3, align 8
  %6 = load i64, ptr %4, align 8, !tbaa !28
  %7 = call noundef i64 @_ZNKSt6vectorIdSaIdEE4sizeEv(ptr noundef nonnull align 8 dereferenceable(24) %5) #3
  %8 = icmp uge i64 %6, %7
  br i1 %8, label %9, label %12

9:                                                ; preds = %2
  %10 = load i64, ptr %4, align 8, !tbaa !28
  %11 = call noundef i64 @_ZNKSt6vectorIdSaIdEE4sizeEv(ptr noundef nonnull align 8 dereferenceable(24) %5) #3
  call void (ptr, ...) @_ZSt24__throw_out_of_range_fmtPKcz(ptr noundef @.str.232, i64 noundef %10, i64 noundef %11) #24
  unreachable

12:                                               ; preds = %2
  ret void
}

; Function Attrs: mustprogress uwtable
define linkonce_odr hidden noundef nonnull align 8 dereferenceable(8) ptr @_ZNSt6vectorIdSaIdEE2atEm(ptr noundef nonnull align 8 dereferenceable(24) %0, i64 noundef %1) #4 comdat align 2 {
  %3 = alloca ptr, align 8
  %4 = alloca i64, align 8
  store ptr %0, ptr %3, align 8, !tbaa !52
  store i64 %1, ptr %4, align 8, !tbaa !28
  %5 = load ptr, ptr %3, align 8
  %6 = load i64, ptr %4, align 8, !tbaa !28
  call void @_ZNKSt6vectorIdSaIdEE14_M_range_checkEm(ptr noundef nonnull align 8 dereferenceable(24) %5, i64 noundef %6)
  %7 = load i64, ptr %4, align 8, !tbaa !28
  %8 = call noundef nonnull align 8 dereferenceable(8) ptr @_ZNSt6vectorIdSaIdEEixEm(ptr noundef nonnull align 8 dereferenceable(24) %5, i64 noundef %7) #3
  ret ptr %8
}

; Function Attrs: mustprogress uwtable
define void @_ZNK6casadi11FmuInternal7get_adjEPNS_9FmuMemoryExPKxPd(ptr noundef nonnull align 8 dereferenceable(744) %0, ptr noundef %1, i64 noundef %2, ptr noundef %3, ptr noundef %4) #4 align 2 {
  %6 = alloca ptr, align 8
  %7 = alloca ptr, align 8
  %8 = alloca i64, align 8
  %9 = alloca ptr, align 8
  %10 = alloca ptr, align 8
  %11 = alloca i64, align 8
  store ptr %0, ptr %6, align 8, !tbaa !41
  store ptr %1, ptr %7, align 8, !tbaa !56
  store i64 %2, ptr %8, align 8, !tbaa !130
  store ptr %3, ptr %9, align 8, !tbaa !131
  store ptr %4, ptr %10, align 8, !tbaa !129
  call void @llvm.lifetime.start.p0(i64 8, ptr %11) #3
  store i64 0, ptr %11, align 8, !tbaa !130
  br label %12

12:                                               ; preds = %27, %5
  %13 = load i64, ptr %11, align 8, !tbaa !130
  %14 = load i64, ptr %8, align 8, !tbaa !130
  %15 = icmp slt i64 %13, %14
  br i1 %15, label %17, label %16

16:                                               ; preds = %12
  call void @llvm.lifetime.end.p0(i64 8, ptr %11) #3
  br label %30

17:                                               ; preds = %12
  %18 = load ptr, ptr %7, align 8, !tbaa !56
  %19 = getelementptr inbounds nuw %"struct.casadi::FmuMemory", ptr %18, i32 0, i32 15
  %20 = load ptr, ptr %9, align 8, !tbaa !131
  %21 = getelementptr inbounds nuw i64, ptr %20, i32 1
  store ptr %21, ptr %9, align 8, !tbaa !131
  %22 = load i64, ptr %20, align 8, !tbaa !130
  %23 = call noundef nonnull align 8 dereferenceable(8) ptr @_ZNSt6vectorIdSaIdEE2atEm(ptr noundef nonnull align 8 dereferenceable(24) %19, i64 noundef %22)
  %24 = load double, ptr %23, align 8, !tbaa !50
  %25 = load ptr, ptr %10, align 8, !tbaa !129
  %26 = getelementptr inbounds nuw double, ptr %25, i32 1
  store ptr %26, ptr %10, align 8, !tbaa !129
  store double %24, ptr %25, align 8, !tbaa !50
  br label %27

27:                                               ; preds = %17
  %28 = load i64, ptr %11, align 8, !tbaa !130
  %29 = add nsw i64 %28, 1
  store i64 %29, ptr %11, align 8, !tbaa !130
  br label %12, !llvm.loop !189

30:                                               ; preds = %16
  ret void
}