; Function Attrs: mustprogress uwtable
define void @_ZNK6casadi11FmuInternal7get_adjEPNS_9FmuMemoryExPKxPd(ptr noundef nonnull readnone align 8 captures(none) dereferenceable(744) %0, ptr noundef readonly captures(none) %1, i64 noundef %2, ptr noundef readonly captures(none) %3, ptr noundef writeonly captures(none) %4) local_unnamed_addr #4 align 2 {
  %6 = icmp sgt i64 %2, 0
  br i1 %6, label %.lr.ph, label %._crit_edge

.lr.ph:                                           ; preds = %5
  %7 = getelementptr inbounds nuw i8, ptr %1, i64 280
  %8 = getelementptr inbounds nuw i8, ptr %1, i64 288
  %9 = load ptr, ptr %8, align 8, !tbaa !67
  %10 = load ptr, ptr %7, align 8, !tbaa !69
  %11 = ptrtoint ptr %9 to i64
  %12 = ptrtoint ptr %10 to i64
  %13 = sub i64 %11, %12
  %14 = ashr exact i64 %13, 3
  br label %15

._crit_edge:                                      ; preds = %_ZNSt6vectorIdSaIdEE2atEm.exit, %5
  ret void

15:                                               ; preds = %.lr.ph, %_ZNSt6vectorIdSaIdEE2atEm.exit
  %.010 = phi i64 [ 0, %.lr.ph ], [ %22, %_ZNSt6vectorIdSaIdEE2atEm.exit ]
  %.059 = phi ptr [ %4, %.lr.ph ], [ %21, %_ZNSt6vectorIdSaIdEE2atEm.exit ]
  %.068 = phi ptr [ %3, %.lr.ph ], [ %18, %_ZNSt6vectorIdSaIdEE2atEm.exit ]
  %16 = load i64, ptr %.068, align 8, !tbaa !162
  %.not.i.i = icmp ult i64 %16, %14
  br i1 %.not.i.i, label %_ZNSt6vectorIdSaIdEE2atEm.exit, label %17

17:                                               ; preds = %15
  tail call void (ptr, ...) @_ZSt24__throw_out_of_range_fmtPKcz(ptr noundef nonnull @.str.232, i64 noundef %16, i64 noundef %14) #34
  unreachable

_ZNSt6vectorIdSaIdEE2atEm.exit:                   ; preds = %15
  %18 = getelementptr inbounds nuw i8, ptr %.068, i64 8
  %19 = getelementptr inbounds nuw double, ptr %10, i64 %16
  %20 = load double, ptr %19, align 8, !tbaa !70
  %21 = getelementptr inbounds nuw i8, ptr %.059, i64 8
  store double %20, ptr %.059, align 8, !tbaa !70
  %22 = add nuw nsw i64 %.010, 1
  %exitcond.not = icmp eq i64 %22, %2
  br i1 %exitcond.not, label %._crit_edge, label %15, !llvm.loop !219
}